target datalayout = "e-m:e-p270:32:32-p271:32:32-p272:64:64-i64:64-i128:128-f80:128-n8:16:32:64-S128"
target triple = "x86_64-unknown-linux-gnu"

%"class.re2::Regexp" = type { i8, i8, i16, i16, i16, %union.anon, ptr, %union.anon.0 }
%union.anon = type { ptr }
%union.anon.0 = type { %struct.anon.1 }
%struct.anon.1 = type { i32, ptr }

; Function Attrs: mustprogress nounwind uwtable
define linkonce_odr noundef ptr @_ZN3re26Regexp3subEv(ptr noundef nonnull align 8 dereferenceable(40) %this) #0 comdat align 2 {
entry:
  %retval = alloca ptr, align 8
  %this.addr = alloca ptr, align 8
  store ptr %this, ptr %this.addr, align 8
  %this1 = load ptr, ptr %this.addr, align 8
  %nsub_ = getelementptr inbounds %"class.re2::Regexp", ptr %this1, i32 0, i32 4
  %0 = load i16, ptr %nsub_, align 2
  %conv = zext i16 %0 to i32
  %cmp = icmp sle i32 %conv, 1
  br i1 %cmp, label %if.then, label %if.else

if.then:                                          ; preds = %entry
  %1 = getelementptr inbounds %"class.re2::Regexp", ptr %this1, i32 0, i32 5
  store ptr %1, ptr %retval, align 8
  br label %return

if.else:                                          ; preds = %entry
  %2 = getelementptr inbounds %"class.re2::Regexp", ptr %this1, i32 0, i32 5
  %3 = load ptr, ptr %2, align 8
  store ptr %3, ptr %retval, align 8
  br label %return

return:                                           ; preds = %if.else, %if.then
  %4 = load ptr, ptr %retval, align 8
  ret ptr %4
}

; Function Attrs: mustprogress nounwind uwtable
define linkonce_odr noundef i32 @_ZN3re26Regexp4nsubEv(ptr noundef nonnull align 8 dereferenceable(40) %this) #0 comdat align 2 {
entry:
  %this.addr = alloca ptr, align 8
  store ptr %this, ptr %this.addr, align 8
  %this1 = load ptr, ptr %this.addr, align 8
  %nsub_ = getelementptr inbounds %"class.re2::Regexp", ptr %this1, i32 0, i32 4
  %0 = load i16, ptr %nsub_, align 2
  %conv = zext i16 %0 to i32
  ret i32 %conv
}

; Function Attrs: mustprogress nounwind uwtable
define linkonce_odr noundef i32 @_ZN3re26Regexp2opEv(ptr noundef nonnull align 8 dereferenceable(40) %this) #0 comdat align 2 {
entry:
  %this.addr = alloca ptr, align 8
  store ptr %this, ptr %this.addr, align 8
  %this1 = load ptr, ptr %this.addr, align 8
  %op_ = getelementptr inbounds %"class.re2::Regexp", ptr %this1, i32 0, i32 0
  %0 = load i8, ptr %op_, align 8
  %conv = zext i8 %0 to i32
  ret i32 %conv
}

; Function Attrs: mustprogress uwtable
define noundef ptr @_ZN3re26Regexp13LeadingRegexpEPS0_(ptr noundef %re) #1 align 2 {
entry:
  %retval = alloca ptr, align 8
  %re.addr = alloca ptr, align 8
  %sub = alloca ptr, align 8
  store ptr %re, ptr %re.addr, align 8
  %0 = load ptr, ptr %re.addr, align 8
  %call = call noundef i32 @_ZN3re26Regexp2opEv(ptr noundef nonnull align 8 dereferenceable(40) %0)
  %cmp = icmp eq i32 %call, 2
  br i1 %cmp, label %if.then, label %if.end

if.then:                                          ; preds = %entry
  store ptr null, ptr %retval, align 8
  br label %return

if.end:                                           ; preds = %entry
  %1 = load ptr, ptr %re.addr, align 8
  %call1 = call noundef i32 @_ZN3re26Regexp2opEv(ptr noundef nonnull align 8 dereferenceable(40) %1)
  %cmp2 = icmp eq i32 %call1, 5
  br i1 %cmp2, label %land.lhs.true, label %if.end12

land.lhs.true:                                    ; preds = %if.end
  %2 = load ptr, ptr %re.addr, align 8
  %call3 = call noundef i32 @_ZN3re26Regexp4nsubEv(ptr noundef nonnull align 8 dereferenceable(40) %2)
  %cmp4 = icmp sge i32 %call3, 2
  br i1 %cmp4, label %if.then5, label %if.end12

if.then5:                                         ; preds = %land.lhs.true
  %3 = load ptr, ptr %re.addr, align 8
  %call6 = call noundef ptr @_ZN3re26Regexp3subEv(ptr noundef nonnull align 8 dereferenceable(40) %3)
  store ptr %call6, ptr %sub, align 8
  %4 = load ptr, ptr %sub, align 8
  %arrayidx = getelementptr inbounds ptr, ptr %4, i64 0
  %5 = load ptr, ptr %arrayidx, align 8
  %call7 = call noundef i32 @_ZN3re26Regexp2opEv(ptr noundef nonnull align 8 dereferenceable(40) %5)
  %cmp8 = icmp eq i32 %call7, 2
  br i1 %cmp8, label %if.then9, label %if.end10

if.then9:                                         ; preds = %if.then5
  store ptr null, ptr %retval, align 8
  br label %return

if.end10:                                         ; preds = %if.then5
  %6 = load ptr, ptr %sub, align 8
  %arrayidx11 = getelementptr inbounds ptr, ptr %6, i64 0
  %7 = load ptr, ptr %arrayidx11, align 8
  store ptr %7, ptr %retval, align 8
  br label %return

if.end12:                                         ; preds = %land.lhs.true, %if.end
  %8 = load ptr, ptr %re.addr, align 8
  store ptr %8, ptr %retval, align 8
  br label %return

return:                                           ; preds = %if.end12, %if.end10, %if.then9, %if.then
  %9 = load ptr, ptr %retval, align 8
  ret ptr %9
}