; Function Attrs: mustprogress nofree norecurse nosync nounwind willreturn memory(read, inaccessiblemem: none) uwtable
define noundef ptr @_ZN3re26Regexp13LeadingRegexpEPS0_(ptr noundef readonly %re) local_unnamed_addr #11 align 2 {
entry:
  %0 = load i8, ptr %re, align 8
  switch i8 %0, label %return.fold.split [
    i8 2, label %return
    i8 5, label %land.lhs.true
  ]

land.lhs.true:                                    ; preds = %entry
  %nsub_.i = getelementptr inbounds i8, ptr %re, i64 6
  %1 = load i16, ptr %nsub_.i, align 2
  %cmp4 = icmp ugt i16 %1, 1
  br i1 %cmp4, label %if.then5, label %return

if.then5:                                         ; preds = %land.lhs.true
  %2 = getelementptr inbounds i8, ptr %re, i64 8
  %3 = load ptr, ptr %2, align 8
  %4 = load ptr, ptr %3, align 8
  %5 = load i8, ptr %4, align 8
  %cmp8 = icmp eq i8 %5, 2
  %spec.select = select i1 %cmp8, ptr null, ptr %4
  br label %return

return.fold.split:                                ; preds = %entry
  br label %return

return:                                           ; preds = %if.then5, %entry, %return.fold.split, %land.lhs.true
  %retval.0 = phi ptr [ null, %entry ], [ %re, %land.lhs.true ], [ %re, %return.fold.split ], [ %spec.select, %if.then5 ]
  ret ptr %retval.0
}